target datalayout = "e-m:e-p270:32:32-p271:32:32-p272:64:64-i64:64-i128:128-f80:128-n8:16:32:64-S128"
target triple = "x86_64-pc-linux-gnu"

%struct._zend_executor_globals = type { %struct._zval_struct, %struct._zval_struct, [32 x ptr], ptr, ptr, %struct._zend_array, %struct._zend_array, ptr, i32, i32, ptr, ptr, ptr, ptr, ptr, ptr, i64, ptr, ptr, i32, i32, i64, i32, i32, i32, i8, i8, %struct.zend_atomic_bool_s, %struct.zend_atomic_bool_s, ptr, i64, ptr, ptr, %struct._zend_array, %struct._zend_array, i32, i8, %struct._zval_struct, %struct._zval_struct, %struct._zend_stack, %struct._zend_stack, %struct._zend_stack, ptr, i32, i32, i64, ptr, ptr, ptr, %struct._zend_objects_store, ptr, ptr, ptr, [3 x %struct._zend_op], ptr, i8, i8, i64, i32, i32, ptr, [16 x %struct._HashTableIterator], ptr, %union._zend_function, %struct._zend_op, %struct._zend_array, i64, %struct.zend_get_gc_buffer, ptr, ptr, ptr, i64, i8, i32, ptr, ptr, i64, %struct._zend_call_stack, i64, i64, [6 x ptr] }
%struct.zend_atomic_bool_s = type { i8 }
%struct._zval_struct = type { %union._zend_value, %union.anon, %union.anon.2 }
%union._zend_value = type { i64 }
%union.anon = type { i32 }
%union.anon.2 = type { i32 }
%struct._zend_stack = type { i32, i32, i32, ptr }
%struct._zend_objects_store = type { ptr, i32, i32, i32 }
%struct._HashTableIterator = type { ptr, i32, i32 }
%union._zend_function = type { %struct._zend_op_array }
%struct._zend_op_array = type { i8, [3 x i8], i32, ptr, ptr, ptr, i32, i32, ptr, ptr, ptr, ptr, i32, i32, i32, i32, ptr, ptr, ptr, ptr, ptr, i32, i32, ptr, ptr, ptr, i32, i32, i32, i32, ptr, ptr, [6 x ptr] }
%struct._zend_op = type { ptr, %union._znode_op, %union._znode_op, %union._znode_op, i32, i32, i8, i8, i8, i8 }
%union._znode_op = type { i32 }
%struct._zend_array = type { %struct._zend_refcounted_h, %union.anon.4, i32, %union.anon.6, i32, i32, i32, i32, i64, ptr }
%struct._zend_refcounted_h = type { i32, %union.anon.3 }
%union.anon.3 = type { i32 }
%union.anon.4 = type { i32 }
%union.anon.6 = type { ptr }
%struct.zend_get_gc_buffer = type { ptr, ptr, ptr }
%struct._zend_call_stack = type { ptr, i64 }
%struct._zend_execute_data = type { ptr, ptr, ptr, ptr, %struct._zval_struct, ptr, ptr, ptr, ptr }
%struct._ze_xmlwriter_object = type { ptr, ptr, %struct._zend_object }
%struct._zend_object = type { %struct._zend_refcounted_h, i32, ptr, ptr, ptr, [1 x %struct._zval_struct] }

@.str.3 = private unnamed_addr constant [3 x i8] c"Ob\00", align 1
@xmlwriter_class_entry_ce = internal global ptr null, align 8
@executor_globals = external global %struct._zend_executor_globals, align 8
@.str.4 = private unnamed_addr constant [42 x i8] c"Invalid or uninitialized XMLWriter object\00", align 1

; Function Attrs: nounwind uwtable
define internal ptr @php_xmlwriter_fetch_object(ptr noundef %0) #0 {
  %2 = alloca ptr, align 8
  store ptr %0, ptr %2, align 8
  %3 = load ptr, ptr %2, align 8
  %4 = getelementptr inbounds i8, ptr %3, i64 -16
  ret ptr %4
}

; Function Attrs: nounwind uwtable
define hidden void @zif_xmlwriter_set_indent(ptr noundef %0, ptr noundef %1) #0 {
  %3 = alloca ptr, align 8
  %4 = alloca ptr, align 8
  %5 = alloca ptr, align 8
  %6 = alloca ptr, align 8
  %7 = alloca i32, align 4
  %8 = alloca i8, align 1
  %9 = alloca ptr, align 8
  %10 = alloca ptr, align 8
  store ptr %0, ptr %4, align 8
  store ptr %1, ptr %5, align 8
  %11 = load ptr, ptr %4, align 8
  %12 = getelementptr inbounds %struct._zend_execute_data, ptr %11, i32 0, i32 4
  %13 = getelementptr inbounds %struct._zval_struct, ptr %12, i32 0, i32 2
  %14 = load i32, ptr %13, align 4
  %15 = load ptr, ptr %4, align 8
  %16 = getelementptr inbounds %struct._zend_execute_data, ptr %15, i32 0, i32 4
  store ptr %16, ptr %3, align 8
  %17 = load ptr, ptr %3, align 8
  %18 = getelementptr inbounds %struct._zval_struct, ptr %17, i32 0, i32 1
  %19 = load i8, ptr %18, align 8
  %20 = zext i8 %19 to i32
  %21 = icmp eq i32 %20, 8
  br i1 %21, label %22, label %25

22:                                               ; preds = %2
  %23 = load ptr, ptr %4, align 8
  %24 = getelementptr inbounds %struct._zend_execute_data, ptr %23, i32 0, i32 4
  br label %26

25:                                               ; preds = %2
  br label %26

26:                                               ; preds = %25, %22
  %27 = phi ptr [ %24, %22 ], [ null, %25 ]
  %28 = load ptr, ptr @xmlwriter_class_entry_ce, align 8
  %29 = call i32 (i32, ptr, ptr, ...) @zend_parse_method_parameters(i32 noundef %14, ptr noundef %27, ptr noundef @.str.3, ptr noundef %9, ptr noundef %28, ptr noundef %8)
  %30 = icmp eq i32 %29, -1
  br i1 %30, label %31, label %36

31:                                               ; preds = %26
  br label %32

32:                                               ; preds = %31
  %33 = load ptr, ptr getelementptr inbounds (%struct._zend_executor_globals, ptr @executor_globals, i32 0, i32 50), align 8
  %34 = icmp ne ptr %33, null
  call void @llvm.assume(i1 %34)
  br label %65

35:                                               ; No predecessors!
  br label %36

36:                                               ; preds = %35, %26
  %37 = load ptr, ptr %9, align 8
  %38 = getelementptr inbounds %struct._zval_struct, ptr %37, i32 0, i32 0
  %39 = load ptr, ptr %38, align 8
  %40 = call ptr @php_xmlwriter_fetch_object(ptr noundef %39)
  store ptr %40, ptr %10, align 8
  %41 = load ptr, ptr %10, align 8
  %42 = getelementptr inbounds %struct._ze_xmlwriter_object, ptr %41, i32 0, i32 0
  %43 = load ptr, ptr %42, align 8
  store ptr %43, ptr %6, align 8
  %44 = load ptr, ptr %6, align 8
  %45 = icmp ne ptr %44, null
  br i1 %45, label %51, label %46

46:                                               ; preds = %36
  call void (ptr, ptr, ...) @zend_throw_error(ptr noundef null, ptr noundef @.str.4)
  br label %47

47:                                               ; preds = %46
  %48 = load ptr, ptr getelementptr inbounds (%struct._zend_executor_globals, ptr @executor_globals, i32 0, i32 50), align 8
  %49 = icmp ne ptr %48, null
  call void @llvm.assume(i1 %49)
  br label %65

50:                                               ; No predecessors!
  br label %51

51:                                               ; preds = %50, %36
  %52 = load ptr, ptr %6, align 8
  %53 = load i8, ptr %8, align 1
  %54 = trunc i8 %53 to i1
  %55 = zext i1 %54 to i32
  %56 = call i32 @xmlTextWriterSetIndent(ptr noundef %52, i32 noundef %55)
  store i32 %56, ptr %7, align 4
  br label %57

57:                                               ; preds = %51
  br label %58

58:                                               ; preds = %57
  %59 = load i32, ptr %7, align 4
  %60 = icmp eq i32 %59, 0
  %61 = select i1 %60, i32 3, i32 2
  %62 = load ptr, ptr %5, align 8
  %63 = getelementptr inbounds %struct._zval_struct, ptr %62, i32 0, i32 1
  store i32 %61, ptr %63, align 8
  br label %64

64:                                               ; preds = %58
  br label %65

65:                                               ; preds = %64, %47, %32
  ret void
}