; Function Attrs: nounwind uwtable
define hidden void @zif_xmlwriter_set_indent(ptr noundef %0, ptr nocapture noundef writeonly %1) #0 {
  %3 = alloca i8, align 1
  %4 = alloca ptr, align 8
  %5 = getelementptr inbounds i8, ptr %0, i64 32
  %6 = getelementptr inbounds i8, ptr %0, i64 44
  %7 = load i32, ptr %6, align 4
  %8 = getelementptr inbounds i8, ptr %0, i64 40
  %9 = load i8, ptr %8, align 8
  %10 = icmp eq i8 %9, 8
  %11 = select i1 %10, ptr %5, ptr null
  %12 = load ptr, ptr @xmlwriter_class_entry_ce, align 8
  %13 = call i32 (i32, ptr, ptr, ...) @zend_parse_method_parameters(i32 noundef %7, ptr noundef %11, ptr noundef nonnull @.str.3, ptr noundef nonnull %4, ptr noundef %12, ptr noundef nonnull %3) #11
  %14 = icmp eq i32 %13, -1
  br i1 %14, label %15, label %18

15:                                               ; preds = %2
  %16 = load ptr, ptr getelementptr inbounds (%struct._zend_executor_globals, ptr @executor_globals, i64 0, i32 50), align 8
  %17 = icmp ne ptr %16, null
  call void @llvm.assume(i1 %17)
  br label %34

18:                                               ; preds = %2
  %19 = load ptr, ptr %4, align 8
  %20 = load ptr, ptr %19, align 8
  %21 = getelementptr inbounds i8, ptr %20, i64 -16
  %22 = load ptr, ptr %21, align 8
  %.not = icmp eq ptr %22, null
  br i1 %.not, label %23, label %26

23:                                               ; preds = %18
  call void (ptr, ptr, ...) @zend_throw_error(ptr noundef null, ptr noundef nonnull @.str.4) #11
  %24 = load ptr, ptr getelementptr inbounds (%struct._zend_executor_globals, ptr @executor_globals, i64 0, i32 50), align 8
  %25 = icmp ne ptr %24, null
  call void @llvm.assume(i1 %25)
  br label %34

26:                                               ; preds = %18
  %27 = load i8, ptr %3, align 1
  %28 = and i8 %27, 1
  %29 = zext nneg i8 %28 to i32
  %30 = call i32 @xmlTextWriterSetIndent(ptr noundef nonnull %22, i32 noundef %29) #11
  %31 = icmp eq i32 %30, 0
  %32 = select i1 %31, i32 3, i32 2
  %33 = getelementptr inbounds i8, ptr %1, i64 8
  store i32 %32, ptr %33, align 8
  br label %34

34:                                               ; preds = %26, %23, %15
  ret void
}